target datalayout = "e-m:e-p270:32:32-p271:32:32-p272:64:64-i64:64-i128:128-f80:128-n8:16:32:64-S128"
target triple = "x86_64-pc-linux-gnu"

%struct.VP8LHashChain = type { ptr, i32 }

; Function Attrs: nounwind uwtable
define hidden i32 @VP8LHashChainInit(ptr noundef %0, i32 noundef %1) #0 {
  %3 = alloca i32, align 4
  %4 = alloca ptr, align 8
  %5 = alloca i32, align 4
  store ptr %0, ptr %4, align 8, !tbaa !37
  store i32 %1, ptr %5, align 4, !tbaa !3
  %6 = load i32, ptr %5, align 4, !tbaa !3
  %7 = sext i32 %6 to i64
  %8 = call ptr @WebPSafeMalloc(i64 noundef %7, i64 noundef 4)
  %9 = load ptr, ptr %4, align 8, !tbaa !37
  %10 = getelementptr inbounds nuw %struct.VP8LHashChain, ptr %9, i32 0, i32 0
  store ptr %8, ptr %10, align 8, !tbaa !39
  %11 = load ptr, ptr %4, align 8, !tbaa !37
  %12 = getelementptr inbounds nuw %struct.VP8LHashChain, ptr %11, i32 0, i32 0
  %13 = load ptr, ptr %12, align 8, !tbaa !39
  %14 = icmp eq ptr %13, null
  br i1 %14, label %15, label %16

15:                                               ; preds = %2
  store i32 0, ptr %3, align 4
  br label %20

16:                                               ; preds = %2
  %17 = load i32, ptr %5, align 4, !tbaa !3
  %18 = load ptr, ptr %4, align 8, !tbaa !37
  %19 = getelementptr inbounds nuw %struct.VP8LHashChain, ptr %18, i32 0, i32 1
  store i32 %17, ptr %19, align 8, !tbaa !42
  store i32 1, ptr %3, align 4
  br label %20

20:                                               ; preds = %16, %15
  %21 = load i32, ptr %3, align 4
  ret i32 %21
}