; Function Attrs: nounwind uwtable
define hidden range(i32 0, 2) i32 @VP8LHashChainInit(ptr noundef writeonly captures(none) initializes((0, 8)) %0, i32 noundef %1) local_unnamed_addr #3 {
  %3 = sext i32 %1 to i64
  %4 = tail call ptr @WebPSafeMalloc(i64 noundef %3, i64 noundef 4) #11
  store ptr %4, ptr %0, align 8, !tbaa !28
  %5 = icmp eq ptr %4, null
  br i1 %5, label %8, label %6

6:                                                ; preds = %2
  %7 = getelementptr inbounds nuw i8, ptr %0, i64 8
  store i32 %1, ptr %7, align 8, !tbaa !31
  br label %8

8:                                                ; preds = %2, %6
  %.0 = phi i32 [ 1, %6 ], [ 0, %2 ]
  ret i32 %.0
}